target datalayout = "e-m:e-p270:32:32-p271:32:32-p272:64:64-i64:64-i128:128-f80:128-n8:16:32:64-S128"
target triple = "x86_64-pc-linux-gnu"

; Function Attrs: nounwind uwtable
define dso_local i32 @_PyUnicode_IsWhitespace(i32 noundef %0) #0 {
  %2 = alloca i32, align 4
  %3 = alloca i32, align 4
  store i32 %0, ptr %3, align 4, !tbaa !4
  %4 = load i32, ptr %3, align 4, !tbaa !4
  switch i32 %4, label %6 [
    i32 9, label %5
    i32 10, label %5
    i32 11, label %5
    i32 12, label %5
    i32 13, label %5
    i32 28, label %5
    i32 29, label %5
    i32 30, label %5
    i32 31, label %5
    i32 32, label %5
    i32 133, label %5
    i32 160, label %5
    i32 5760, label %5
    i32 8192, label %5
    i32 8193, label %5
    i32 8194, label %5
    i32 8195, label %5
    i32 8196, label %5
    i32 8197, label %5
    i32 8198, label %5
    i32 8199, label %5
    i32 8200, label %5
    i32 8201, label %5
    i32 8202, label %5
    i32 8232, label %5
    i32 8233, label %5
    i32 8239, label %5
    i32 8287, label %5
    i32 12288, label %5
  ]

5:                                                ; preds = %1, %1, %1, %1, %1, %1, %1, %1, %1, %1, %1, %1, %1, %1, %1, %1, %1, %1, %1, %1, %1, %1, %1, %1, %1, %1, %1, %1, %1
  store i32 1, ptr %2, align 4
  br label %7

6:                                                ; preds = %1
  store i32 0, ptr %2, align 4
  br label %7

7:                                                ; preds = %6, %5
  %8 = load i32, ptr %2, align 4
  ret i32 %8
}