; Function Attrs: mustprogress nofree norecurse nosync nounwind willreturn memory(none) uwtable
define dso_local range(i32 0, 2) i32 @_PyUnicode_IsWhitespace(i32 noundef %0) local_unnamed_addr #0 {
  switch i32 %0, label %2 [
    i32 9, label %3
    i32 10, label %3
    i32 11, label %3
    i32 12, label %3
    i32 13, label %3
    i32 28, label %3
    i32 29, label %3
    i32 30, label %3
    i32 31, label %3
    i32 32, label %3
    i32 133, label %3
    i32 160, label %3
    i32 5760, label %3
    i32 8192, label %3
    i32 8193, label %3
    i32 8194, label %3
    i32 8195, label %3
    i32 8196, label %3
    i32 8197, label %3
    i32 8198, label %3
    i32 8199, label %3
    i32 8200, label %3
    i32 8201, label %3
    i32 8202, label %3
    i32 8232, label %3
    i32 8233, label %3
    i32 8239, label %3
    i32 8287, label %3
    i32 12288, label %3
  ]

2:                                                ; preds = %1
  br label %3

3:                                                ; preds = %1, %1, %1, %1, %1, %1, %1, %1, %1, %1, %1, %1, %1, %1, %1, %1, %1, %1, %1, %1, %1, %1, %1, %1, %1, %1, %1, %1, %1, %2
  %.0 = phi i32 [ 0, %2 ], [ 1, %1 ], [ 1, %1 ], [ 1, %1 ], [ 1, %1 ], [ 1, %1 ], [ 1, %1 ], [ 1, %1 ], [ 1, %1 ], [ 1, %1 ], [ 1, %1 ], [ 1, %1 ], [ 1, %1 ], [ 1, %1 ], [ 1, %1 ], [ 1, %1 ], [ 1, %1 ], [ 1, %1 ], [ 1, %1 ], [ 1, %1 ], [ 1, %1 ], [ 1, %1 ], [ 1, %1 ], [ 1, %1 ], [ 1, %1 ], [ 1, %1 ], [ 1, %1 ], [ 1, %1 ], [ 1, %1 ], [ 1, %1 ]
  ret i32 %.0
}